target datalayout = "e-m:e-p270:32:32-p271:32:32-p272:64:64-i64:64-i128:128-f80:128-n8:16:32:64-S128"
target triple = "x86_64-pc-linux-gnu"

%"class.gmx::ForceElement" = type { %"class.gmx::ISimulatorElement", %"class.gmx::ITopologyHolderClient", %"class.gmx::INeighborSearchSignallerClient", %"class.gmx::IEnergySignallerClient", %"class.gmx::IDomDecHelperClient", ptr, i8, i64, i64, i64, i64, ptr, ptr, ptr, ptr, i8, i8, i64, %class.DDBalanceRegionHandler, %"class.std::unique_ptr", %"struct.gmx::EnumerationArray.6", ptr, ptr, ptr, ptr, ptr, ptr, ptr, ptr, ptr, ptr, ptr, ptr, ptr, ptr }
%"class.gmx::ISimulatorElement" = type { ptr }
%"class.gmx::ITopologyHolderClient" = type { ptr }
%"class.gmx::INeighborSearchSignallerClient" = type { ptr }
%"class.gmx::IEnergySignallerClient" = type { ptr }
%"class.gmx::IDomDecHelperClient" = type { ptr }
%class.DDBalanceRegionHandler = type { i8, ptr }
%"class.std::unique_ptr" = type { %"struct.std::__uniq_ptr_data" }
%"struct.std::__uniq_ptr_data" = type { %"class.std::__uniq_ptr_impl" }
%"class.std::__uniq_ptr_impl" = type { %"class.std::tuple" }
%"class.std::tuple" = type { %"struct.std::_Tuple_impl" }
%"struct.std::_Tuple_impl" = type { %"struct.std::_Head_base.5" }
%"struct.std::_Head_base.5" = type { ptr }
%"struct.gmx::EnumerationArray.6" = type { [7 x float] }

; Function Attrs: mustprogress uwtable
define void @_ZN3gmx12ForceElement15elementTeardownEv(ptr noundef nonnull align 8 dereferenceable(304) %0) unnamed_addr #0 align 2 {
  %2 = alloca ptr, align 8
  store ptr %0, ptr %2, align 8
  %3 = load ptr, ptr %2, align 8
  %4 = getelementptr inbounds %"class.gmx::ForceElement", ptr %3, i32 0, i32 6
  %5 = load i8, ptr %4, align 8
  %6 = trunc i8 %5 to i1
  br i1 %6, label %7, label %14

7:                                                ; preds = %1
  %8 = getelementptr inbounds %"class.gmx::ForceElement", ptr %3, i32 0, i32 21
  %9 = load ptr, ptr %8, align 8
  %10 = getelementptr inbounds %"class.gmx::ForceElement", ptr %3, i32 0, i32 5
  %11 = load ptr, ptr %10, align 8
  %12 = getelementptr inbounds %"class.gmx::ForceElement", ptr %3, i32 0, i32 17
  %13 = load i64, ptr %12, align 8
  call void @_Z12done_shellfcP8_IO_FILEP13gmx_shellfc_tl(ptr noundef %9, ptr noundef %11, i64 noundef %13)
  br label %14

14:                                               ; preds = %7, %1
  ret void
}