; Function Attrs: mustprogress uwtable
define void @_ZN3gmx12ForceElement15elementTeardownEv(ptr nocapture noundef nonnull readonly align 8 dereferenceable(304) %0) unnamed_addr #0 align 2 {
  %2 = getelementptr inbounds i8, ptr %0, i64 48
  %3 = load i8, ptr %2, align 8
  %4 = trunc i8 %3 to i1
  br i1 %4, label %5, label %12

5:                                                ; preds = %1
  %6 = getelementptr inbounds i8, ptr %0, i64 192
  %7 = load ptr, ptr %6, align 8
  %8 = getelementptr inbounds i8, ptr %0, i64 40
  %9 = load ptr, ptr %8, align 8
  %10 = getelementptr inbounds i8, ptr %0, i64 128
  %11 = load i64, ptr %10, align 8
  tail call void @_Z12done_shellfcP8_IO_FILEP13gmx_shellfc_tl(ptr noundef %7, ptr noundef %9, i64 noundef %11)
  br label %12

12:                                               ; preds = %5, %1
  ret void
}